(igame
World
p0
(dp1
S'things'
p2
(lp3
(igame
Player
p4
(dp5
S'observed_things'
p6
NsS'name'
p7
S'peter'
p8
sS'items'
p9
(lp10
sS'observed'
p11
I0
sS'location'
p12
NsS'world'
p13
g0
sS'is_hidden'
p14
I00
sS'description'
p15
S'peter'
p16
sbasS'group'
p17
NsS'events'
p18
(lp19
sb.